target datalayout = "e-m:e-p270:32:32-p271:32:32-p272:64:64-i64:64-i128:128-f80:128-n8:16:32:64-S128"
target triple = "x86_64-pc-linux-gnu"

%struct.AVRational = type { i32, i32 }

; Function Attrs: nounwind willreturn memory(none) uwtable
define i64 @av_rescale_q_rnd(i64 noundef %0, i64 %1, i64 %2, i32 noundef %3) #0 {
  %5 = alloca %struct.AVRational, align 4
  %6 = alloca %struct.AVRational, align 4
  %7 = alloca i64, align 8
  %8 = alloca i32, align 4
  %9 = alloca i64, align 8
  %10 = alloca i64, align 8
  store i64 %1, ptr %5, align 4
  store i64 %2, ptr %6, align 4
  store i64 %0, ptr %7, align 8, !tbaa !4
  store i32 %3, ptr %8, align 4, !tbaa !8
  call void @llvm.lifetime.start.p0(i64 8, ptr %9) #11
  %11 = getelementptr inbounds nuw %struct.AVRational, ptr %5, i32 0, i32 0
  %12 = load i32, ptr %11, align 4, !tbaa !16
  %13 = sext i32 %12 to i64
  %14 = getelementptr inbounds nuw %struct.AVRational, ptr %6, i32 0, i32 1
  %15 = load i32, ptr %14, align 4, !tbaa !18
  %16 = sext i32 %15 to i64
  %17 = mul nsw i64 %13, %16
  store i64 %17, ptr %9, align 8, !tbaa !4
  call void @llvm.lifetime.start.p0(i64 8, ptr %10) #11
  %18 = getelementptr inbounds nuw %struct.AVRational, ptr %6, i32 0, i32 0
  %19 = load i32, ptr %18, align 4, !tbaa !16
  %20 = sext i32 %19 to i64
  %21 = getelementptr inbounds nuw %struct.AVRational, ptr %5, i32 0, i32 1
  %22 = load i32, ptr %21, align 4, !tbaa !18
  %23 = sext i32 %22 to i64
  %24 = mul nsw i64 %20, %23
  store i64 %24, ptr %10, align 8, !tbaa !4
  %25 = load i64, ptr %7, align 8, !tbaa !4
  %26 = load i64, ptr %9, align 8, !tbaa !4
  %27 = load i64, ptr %10, align 8, !tbaa !4
  %28 = load i32, ptr %8, align 4, !tbaa !8
  %29 = call i64 @av_rescale_rnd(i64 noundef %25, i64 noundef %26, i64 noundef %27, i32 noundef %28) #12
  call void @llvm.lifetime.end.p0(i64 8, ptr %10) #11
  call void @llvm.lifetime.end.p0(i64 8, ptr %9) #11
  ret i64 %29
}

; Function Attrs: alwaysinline nounwind uwtable
define internal i64 @av_sat_add64_c(i64 noundef %0, i64 noundef %1) #9 {
  %3 = alloca i64, align 8
  %4 = alloca i64, align 8
  %5 = alloca i64, align 8
  store i64 %0, ptr %3, align 8, !tbaa !4
  store i64 %1, ptr %4, align 8, !tbaa !4
  call void @llvm.lifetime.start.p0(i64 8, ptr %5) #11
  %6 = load i64, ptr %3, align 8, !tbaa !4
  %7 = load i64, ptr %4, align 8, !tbaa !4
  %8 = call { i64, i1 } @llvm.sadd.with.overflow.i64(i64 %6, i64 %7)
  %9 = extractvalue { i64, i1 } %8, 1
  %10 = extractvalue { i64, i1 } %8, 0
  store i64 %10, ptr %5, align 8
  br i1 %9, label %13, label %11

11:                                               ; preds = %2
  %12 = load i64, ptr %5, align 8, !tbaa !4
  br label %17

13:                                               ; preds = %2
  %14 = load i64, ptr %5, align 8, !tbaa !4
  %15 = icmp slt i64 %14, 0
  %16 = select i1 %15, i64 9223372036854775807, i64 -9223372036854775808
  br label %17

17:                                               ; preds = %13, %11
  %18 = phi i64 [ %12, %11 ], [ %16, %13 ]
  call void @llvm.lifetime.end.p0(i64 8, ptr %5) #11
  ret i64 %18
}

; Function Attrs: nounwind willreturn memory(none) uwtable
define i64 @av_rescale_q(i64 noundef %0, i64 %1, i64 %2) #0 {
  %4 = alloca %struct.AVRational, align 4
  %5 = alloca %struct.AVRational, align 4
  %6 = alloca i64, align 8
  store i64 %1, ptr %4, align 4
  store i64 %2, ptr %5, align 4
  store i64 %0, ptr %6, align 8, !tbaa !4
  %7 = load i64, ptr %6, align 8, !tbaa !4
  %8 = load i64, ptr %4, align 4
  %9 = load i64, ptr %5, align 4
  %10 = call i64 @av_rescale_q_rnd(i64 noundef %7, i64 %8, i64 %9, i32 noundef 5) #12
  ret i64 %10
}

; Function Attrs: nounwind uwtable
define i64 @av_add_stable(i64 %0, i64 noundef %1, i64 %2, i64 noundef %3) #4 {
  %5 = alloca i64, align 8
  %6 = alloca %struct.AVRational, align 4
  %7 = alloca %struct.AVRational, align 4
  %8 = alloca i64, align 8
  %9 = alloca i64, align 8
  %10 = alloca i64, align 8
  %11 = alloca i64, align 8
  %12 = alloca %struct.AVRational, align 4
  %13 = alloca %struct.AVRational, align 4
  %14 = alloca i32, align 4
  %15 = alloca i64, align 8
  %16 = alloca i64, align 8
  store i64 %0, ptr %6, align 4
  store i64 %2, ptr %7, align 4
  store i64 %1, ptr %8, align 8, !tbaa !4
  store i64 %3, ptr %9, align 8, !tbaa !4
  call void @llvm.lifetime.start.p0(i64 8, ptr %10) #11
  call void @llvm.lifetime.start.p0(i64 8, ptr %11) #11
  %17 = load i64, ptr %9, align 8, !tbaa !4
  %18 = icmp ne i64 %17, 1
  br i1 %18, label %19, label %27

19:                                               ; preds = %4
  call void @llvm.lifetime.start.p0(i64 8, ptr %12) #11
  %20 = getelementptr inbounds nuw %struct.AVRational, ptr %13, i32 0, i32 0
  %21 = load i64, ptr %9, align 8, !tbaa !4
  %22 = trunc i64 %21 to i32
  store i32 %22, ptr %20, align 4, !tbaa !16
  %23 = getelementptr inbounds nuw %struct.AVRational, ptr %13, i32 0, i32 1
  store i32 1, ptr %23, align 4, !tbaa !18
  %24 = load i64, ptr %7, align 4
  %25 = load i64, ptr %13, align 4
  %26 = call i64 @av_mul_q(i64 %24, i64 %25) #12
  store i64 %26, ptr %12, align 4
  call void @llvm.memcpy.p0.p0.i64(ptr align 4 %7, ptr align 4 %12, i64 8, i1 false), !tbaa.struct !22
  call void @llvm.lifetime.end.p0(i64 8, ptr %12) #11
  br label %27

27:                                               ; preds = %19, %4
  %28 = getelementptr inbounds nuw %struct.AVRational, ptr %7, i32 0, i32 0
  %29 = load i32, ptr %28, align 4, !tbaa !16
  %30 = sext i32 %29 to i64
  %31 = getelementptr inbounds nuw %struct.AVRational, ptr %6, i32 0, i32 1
  %32 = load i32, ptr %31, align 4, !tbaa !18
  %33 = sext i32 %32 to i64
  %34 = mul nsw i64 %30, %33
  store i64 %34, ptr %10, align 8, !tbaa !4
  %35 = getelementptr inbounds nuw %struct.AVRational, ptr %7, i32 0, i32 1
  %36 = load i32, ptr %35, align 4, !tbaa !18
  %37 = sext i32 %36 to i64
  %38 = getelementptr inbounds nuw %struct.AVRational, ptr %6, i32 0, i32 0
  %39 = load i32, ptr %38, align 4, !tbaa !16
  %40 = sext i32 %39 to i64
  %41 = mul nsw i64 %37, %40
  store i64 %41, ptr %11, align 8, !tbaa !4
  %42 = load i64, ptr %10, align 8, !tbaa !4
  %43 = load i64, ptr %11, align 8, !tbaa !4
  %44 = srem i64 %42, %43
  %45 = icmp eq i64 %44, 0
  br i1 %45, label %46, label %59

46:                                               ; preds = %27
  %47 = load i64, ptr %8, align 8, !tbaa !4
  %48 = load i64, ptr %10, align 8, !tbaa !4
  %49 = load i64, ptr %11, align 8, !tbaa !4
  %50 = sdiv i64 %48, %49
  %51 = sub nsw i64 9223372036854775807, %50
  %52 = icmp sle i64 %47, %51
  br i1 %52, label %53, label %59

53:                                               ; preds = %46
  %54 = load i64, ptr %8, align 8, !tbaa !4
  %55 = load i64, ptr %10, align 8, !tbaa !4
  %56 = load i64, ptr %11, align 8, !tbaa !4
  %57 = sdiv i64 %55, %56
  %58 = add nsw i64 %54, %57
  store i64 %58, ptr %5, align 8
  store i32 1, ptr %14, align 4
  br label %95

59:                                               ; preds = %46, %27
  %60 = load i64, ptr %10, align 8, !tbaa !4
  %61 = load i64, ptr %11, align 8, !tbaa !4
  %62 = icmp slt i64 %60, %61
  br i1 %62, label %63, label %65

63:                                               ; preds = %59
  %64 = load i64, ptr %8, align 8, !tbaa !4
  store i64 %64, ptr %5, align 8
  store i32 1, ptr %14, align 4
  br label %95

65:                                               ; preds = %59
  call void @llvm.lifetime.start.p0(i64 8, ptr %15) #11
  %66 = load i64, ptr %8, align 8, !tbaa !4
  %67 = load i64, ptr %6, align 4
  %68 = load i64, ptr %7, align 4
  %69 = call i64 @av_rescale_q(i64 noundef %66, i64 %67, i64 %68) #12
  store i64 %69, ptr %15, align 8, !tbaa !4
  call void @llvm.lifetime.start.p0(i64 8, ptr %16) #11
  %70 = load i64, ptr %15, align 8, !tbaa !4
  %71 = load i64, ptr %7, align 4
  %72 = load i64, ptr %6, align 4
  %73 = call i64 @av_rescale_q(i64 noundef %70, i64 %71, i64 %72) #12
  store i64 %73, ptr %16, align 8, !tbaa !4
  %74 = load i64, ptr %15, align 8, !tbaa !4
  %75 = icmp eq i64 %74, 9223372036854775807
  br i1 %75, label %82, label %76

76:                                               ; preds = %65
  %77 = load i64, ptr %15, align 8, !tbaa !4
  %78 = icmp eq i64 %77, -9223372036854775808
  br i1 %78, label %82, label %79

79:                                               ; preds = %76
  %80 = load i64, ptr %16, align 8, !tbaa !4
  %81 = icmp eq i64 %80, -9223372036854775808
  br i1 %81, label %82, label %84

82:                                               ; preds = %79, %76, %65
  %83 = load i64, ptr %8, align 8, !tbaa !4
  store i64 %83, ptr %5, align 8
  store i32 1, ptr %14, align 4
  br label %94

84:                                               ; preds = %79
  %85 = load i64, ptr %15, align 8, !tbaa !4
  %86 = add nsw i64 %85, 1
  %87 = load i64, ptr %7, align 4
  %88 = load i64, ptr %6, align 4
  %89 = call i64 @av_rescale_q(i64 noundef %86, i64 %87, i64 %88) #12
  %90 = load i64, ptr %8, align 8, !tbaa !4
  %91 = load i64, ptr %16, align 8, !tbaa !4
  %92 = sub nsw i64 %90, %91
  %93 = call i64 @av_sat_add64_c(i64 noundef %89, i64 noundef %92)
  store i64 %93, ptr %5, align 8
  store i32 1, ptr %14, align 4
  br label %94

94:                                               ; preds = %84, %82
  call void @llvm.lifetime.end.p0(i64 8, ptr %16) #11
  call void @llvm.lifetime.end.p0(i64 8, ptr %15) #11
  br label %95

95:                                               ; preds = %94, %63, %53
  call void @llvm.lifetime.end.p0(i64 8, ptr %11) #11
  call void @llvm.lifetime.end.p0(i64 8, ptr %10) #11
  %96 = load i64, ptr %5, align 8
  ret i64 %96
}