; Function Attrs: mustprogress nofree nosync nounwind willreturn memory(none) uwtable
define i64 @av_add_stable(i64 %0, i64 noundef %1, i64 %2, i64 noundef %3) local_unnamed_addr #2 {
  %.not = icmp eq i64 %3, 1
  br i1 %.not, label %7, label %5

5:                                                ; preds = %4
  %.sroa.0.0.insert.ext = and i64 %3, 4294967295
  %.sroa.0.0.insert.insert = or disjoint i64 %.sroa.0.0.insert.ext, 4294967296
  %6 = tail call i64 @av_mul_q(i64 %2, i64 %.sroa.0.0.insert.insert) #10
  br label %7

7:                                                ; preds = %5, %4
  %.sroa.026.0.in = phi i64 [ %6, %5 ], [ %2, %4 ]
  %sext = shl i64 %.sroa.026.0.in, 32
  %8 = ashr exact i64 %sext, 32
  %9 = ashr i64 %0, 32
  %10 = mul nsw i64 %8, %9
  %11 = ashr i64 %.sroa.026.0.in, 32
  %sext85 = shl i64 %0, 32
  %12 = ashr exact i64 %sext85, 32
  %13 = mul nsw i64 %11, %12
  %14 = srem i64 %10, %13
  %15 = sdiv i64 %10, %13
  %16 = icmp ne i64 %14, 0
  %17 = sub nsw i64 9223372036854775807, %15
  %.not86 = icmp sgt i64 %1, %17
  %or.cond91 = select i1 %16, i1 true, i1 %.not86
  br i1 %or.cond91, label %20, label %18

18:                                               ; preds = %7
  %19 = add nsw i64 %15, %1
  br label %37

20:                                               ; preds = %7
  %21 = icmp slt i64 %10, %13
  br i1 %21, label %37, label %22

22:                                               ; preds = %20
  %23 = tail call i64 @av_rescale_rnd(i64 noundef %1, i64 noundef %13, i64 noundef %10, i32 noundef 5) #10
  %24 = tail call i64 @av_rescale_rnd(i64 noundef %23, i64 noundef %10, i64 noundef %13, i32 noundef 5) #10
  %25 = add i64 %23, -9223372036854775807
  %or.cond = icmp ult i64 %25, 2
  %26 = icmp eq i64 %24, -9223372036854775808
  %or.cond3 = select i1 %or.cond, i1 true, i1 %26
  br i1 %or.cond3, label %37, label %27

27:                                               ; preds = %22
  %28 = add nsw i64 %23, 1
  %29 = tail call i64 @av_rescale_rnd(i64 noundef %28, i64 noundef %10, i64 noundef %13, i32 noundef 5) #10
  %30 = sub nsw i64 %1, %24
  %31 = tail call { i64, i1 } @llvm.sadd.with.overflow.i64(i64 %29, i64 %30)
  %32 = extractvalue { i64, i1 } %31, 1
  %33 = extractvalue { i64, i1 } %31, 0
  %34 = icmp slt i64 %33, 0
  %35 = select i1 %34, i64 9223372036854775807, i64 -9223372036854775808
  %36 = select i1 %32, i64 %35, i64 %33
  br label %37

37:                                               ; preds = %27, %22, %20, %18
  %.0 = phi i64 [ %19, %18 ], [ %1, %20 ], [ %36, %27 ], [ %1, %22 ]
  ret i64 %.0
}